Certificate:
    Data:
        Version: 3 (0x2)
        Serial Number:
            ed:10:6d:35:6e:76:5f:97
    Signature Algorithm: sha256WithRSAEncryption
        Issuer: C=CH, ST=Bern, O=CA Corp, CN=cert.example.com/emailAddress=cert@cert.example.com
        Validity
            Not Before: Sep 19 15:50:00 2019 GMT
            Not After : Sep 18 15:50:00 2020 GMT
        Subject: C=CH, ST=Bern, L=Bern, O=Mailer, CN=mailer.example.org/emailAddress=mailer@mailer.example.org
        Subject Public Key Info:
            Public Key Algorithm: rsaEncryption
                Public-Key: (1024 bit)
                Modulus:
                    00:c1:9a:ea:e0:ac:16:a7:66:af:7a:fb:ec:dc:21:
                    50:f9:f0:3f:4a:44:88:75:77:c4:6d:8f:70:eb:58:
                    84:6e:0b:3c:c3:42:e0:dc:14:94:6c:c7:31:ec:77:
                    14:26:5f:5e:63:9e:f4:1b:ce:e8:12:49:8f:49:a1:
                    93:63:11:17:c9:18:fa:9c:30:42:6f:d5:4d:2f:42:
                    1d:4e:06:2b:d0:dc:20:03:29:9a:f9:90:24:91:f5:
                    57:15:0a:83:58:86:99:44:8f:41:03:22:c2:31:e6:
                    9e:c1:a9:09:ee:9b:5a:bc:36:9d:47:6f:b3:7a:3c:
                    81:de:fc:b2:69:51:7b:dc:05
                Exponent: 65537 (0x10001)
        X509v3 extensions:
            X509v3 Basic Constraints: 
                CA:FALSE
            Netscape Comment: 
                OpenSSL Generated Certificate
            X509v3 Subject Key Identifier: 
                7D:C3:20:40:11:57:13:8F:32:51:4F:FD:3A:13:08:94:F3:2A:40:FF
            X509v3 Authority Key Identifier: 
                keyid:B6:DE:8E:38:B7:53:17:9C:23:D6:F3:7D:D8:24:67:44:B8:49:7F:10

    Signature Algorithm: sha256WithRSAEncryption
         6e:e8:cd:8c:bf:48:8b:21:61:72:ee:9a:72:0f:fb:a8:62:18:
         2a:ca:a4:48:4a:3f:ec:56:0c:c0:cd:b8:a0:80:75:d8:72:bf:
         76:16:fb:71:7a:a3:4b:4e:0d:f8:b2:e0:5e:ec:6e:41:ef:ad:
         36:91:96:d9:16:7b:62:6f:63:85:f5:67:23:ce:e2:80:43:19:
         67:63:20:20:bb:b0:26:f5:08:46:fd:79:37:b2:71:b7:cb:02:
         4c:0b:4d:8b:8b:df:3a:e1:db:98:79:d9:29:5e:2c:f9:16:aa:
         0f:fe:ac:9d:6f:80:0c:37:7e:f1:cd:f8:11:82:5e:46:b9:57:
         3d:5e
-----BEGIN CERTIFICATE-----
MIIC7DCCAlWgAwIBAgIJAO0QbTVudl+XMA0GCSqGSIb3DQEBCwUAMG8xCzAJBgNV
BAYTAkNIMQ0wCwYDVQQIDARCZXJuMRAwDgYDVQQKDAdDQSBDb3JwMRkwFwYDVQQD
DBBjZXJ0LmV4YW1wbGUuY29tMSQwIgYJKoZIhvcNAQkBFhVjZXJ0QGNlcnQuZXhh
bXBsZS5jb20wHhcNMTkwOTE5MTU1MDAwWhcNMjAwOTE4MTU1MDAwWjCBgzELMAkG
A1UEBhMCQ0gxDTALBgNVBAgMBEJlcm4xDTALBgNVBAcMBEJlcm4xDzANBgNVBAoM
Bk1haWxlcjEbMBkGA1UEAwwSbWFpbGVyLmV4YW1wbGUub3JnMSgwJgYJKoZIhvcN
AQkBFhltYWlsZXJAbWFpbGVyLmV4YW1wbGUub3JnMIGfMA0GCSqGSIb3DQEBAQUA
A4GNADCBiQKBgQDBmurgrBanZq96++zcIVD58D9KRIh1d8Rtj3DrWIRuCzzDQuDc
FJRsxzHsdxQmX15jnvQbzugSSY9JoZNjERfJGPqcMEJv1U0vQh1OBivQ3CADKZr5
kCSR9VcVCoNYhplEj0EDIsIx5p7BqQnum1q8Np1Hb7N6PIHe/LJpUXvcBQIDAQAB
o3sweTAJBgNVHRMEAjAAMCwGCWCGSAGG+EIBDQQfFh1PcGVuU1NMIEdlbmVyYXRl
ZCBDZXJ0aWZpY2F0ZTAdBgNVHQ4EFgQUfcMgQBFXE48yUU/9OhMIlPMqQP8wHwYD
VR0jBBgwFoAUtt6OOLdTF5wj1vN92CRnRLhJfxAwDQYJKoZIhvcNAQELBQADgYEA
bujNjL9IiyFhcu6acg/7qGIYKsqkSEo/7FYMwM24oIB12HK/dhb7cXqjS04N+LLg
XuxuQe+tNpGW2RZ7Ym9jhfVnI87igEMZZ2MgILuwJvUIRv15N7Jxt8sCTAtNi4vf
OuHbmHnZKV4s+RaqD/6snW+ADDd+8c34EYJeRrlXPV4=
-----END CERTIFICATE-----
